target datalayout = "e-m:e-p270:32:32-p271:32:32-p272:64:64-i64:64-i128:128-f80:128-n8:16:32:64-S128"
target triple = "x86_64-pc-linux-gnu"

%"class.std::__cxx11::basic_string" = type { %"struct.std::__cxx11::basic_string<char>::_Alloc_hider", i64, %union.anon }
%"struct.std::__cxx11::basic_string<char>::_Alloc_hider" = type { ptr }
%union.anon = type { i64, [8 x i8] }
%"class.fmt::v10::basic_format_string" = type { %"class.fmt::v10::basic_string_view" }
%"class.fmt::v10::basic_string_view" = type { ptr, i64 }
%"class.fmt::v10::basic_format_args" = type { i64, %union.anon.19 }
%union.anon.19 = type { ptr }
%"class.fmt::v10::format_arg_store" = type { %"struct.fmt::v10::detail::arg_data" }
%"struct.fmt::v10::detail::arg_data" = type { [1 x %"class.fmt::v10::detail::value"] }
%"class.fmt::v10::detail::value" = type { %union.anon.20 }
%union.anon.20 = type { i128 }
%"struct.fmt::v10::detail::custom_value" = type { ptr, ptr }
%"struct.fmt::v10::detail::arg_mapper" = type { i8 }

@.str.7 = private unnamed_addr constant [21 x i8] c"{:%Y-%m-%d-%H-%M-%S}\00", align 1

; Function Attrs: alwaysinline mustprogress nounwind ssp uwtable
define linkonce_odr noundef nonnull align 8 dereferenceable(56) ptr @_ZN3fmt3v106detail10arg_mapperINS0_20basic_format_contextINS0_8appenderEcEEE6do_mapI2tmTnNSt9enable_ifIXsr11formattableIT_EE5valueEiE4typeELi0EEERSA_SD_(ptr noundef nonnull align 1 dereferenceable(1) %0, ptr noundef nonnull align 8 dereferenceable(56) %1) #3 comdat align 2 {
  %3 = alloca ptr, align 8
  %4 = alloca ptr, align 8
  store ptr %0, ptr %3, align 8, !tbaa !420
  store ptr %1, ptr %4, align 8, !tbaa !225
  %5 = load ptr, ptr %4, align 8, !tbaa !225
  ret ptr %5
}

; Function Attrs: alwaysinline mustprogress nounwind ssp uwtable
define linkonce_odr void @_ZN3fmt3v106detail5valueINS0_20basic_format_contextINS0_8appenderEcEEEC2I2tmEERT_(ptr noundef nonnull align 16 dereferenceable(16) %0, ptr noundef nonnull align 8 dereferenceable(56) %1) unnamed_addr #3 comdat align 2 {
  %3 = alloca ptr, align 8
  %4 = alloca ptr, align 8
  store ptr %0, ptr %3, align 8, !tbaa !281
  store ptr %1, ptr %4, align 8, !tbaa !225
  %5 = load ptr, ptr %3, align 8
  %6 = load ptr, ptr %4, align 8, !tbaa !225
  %7 = getelementptr inbounds nuw %"class.fmt::v10::detail::value", ptr %5, i32 0, i32 0
  %8 = getelementptr inbounds nuw %"struct.fmt::v10::detail::custom_value", ptr %7, i32 0, i32 0
  store ptr %6, ptr %8, align 16, !tbaa !38
  %9 = getelementptr inbounds nuw %"class.fmt::v10::detail::value", ptr %5, i32 0, i32 0
  %10 = getelementptr inbounds nuw %"struct.fmt::v10::detail::custom_value", ptr %9, i32 0, i32 1
  store ptr @_ZN3fmt3v106detail5valueINS0_20basic_format_contextINS0_8appenderEcEEE17format_custom_argI2tmNS0_9formatterIS8_cvEEEEvPvRNS0_26basic_format_parse_contextIcEERS5_, ptr %10, align 8, !tbaa !38
  ret void
}

; Function Attrs: alwaysinline mustprogress ssp uwtable
define linkonce_odr noundef nonnull align 8 dereferenceable(56) ptr @_ZN3fmt3v106detail10arg_mapperINS0_20basic_format_contextINS0_8appenderEcEEE3mapI2tmS8_TnNSt9enable_ifIXaaaaaaaaoooosr3std8is_classIT0_EE5valuesr3std7is_enumISA_EE5valuesr3std8is_unionISA_EE5valuentsr9is_stringISA_EE5valuentsr7is_charISA_EE5valuentsr12is_named_argISA_EE5valuentsr3std13is_arithmeticINS1_16format_as_resultISA_E4typeEEE5valueEiE4typeELi0EEEDTcl6do_mapfp_EERT_(ptr noundef nonnull align 1 dereferenceable(1) %0, ptr noundef nonnull align 8 dereferenceable(56) %1) #9 comdat align 2 {
  %3 = alloca ptr, align 8
  %4 = alloca ptr, align 8
  store ptr %0, ptr %3, align 8, !tbaa !420
  store ptr %1, ptr %4, align 8, !tbaa !225
  %5 = load ptr, ptr %3, align 8
  %6 = load ptr, ptr %4, align 8, !tbaa !225
  %7 = call noundef nonnull align 8 dereferenceable(56) ptr @_ZN3fmt3v106detail10arg_mapperINS0_20basic_format_contextINS0_8appenderEcEEE6do_mapI2tmTnNSt9enable_ifIXsr11formattableIT_EE5valueEiE4typeELi0EEERSA_SD_(ptr noundef nonnull align 1 dereferenceable(1) %5, ptr noundef nonnull align 8 dereferenceable(56) %6)
  ret ptr %7
}

; Function Attrs: alwaysinline mustprogress nounwind ssp uwtable
define linkonce_odr void @_ZN3fmt3v106detail8arg_dataINS1_5valueINS0_20basic_format_contextINS0_8appenderEcEEEEcLm1ELm0EEC2IJS7_EEEDpRKT_(ptr noundef nonnull align 16 dereferenceable(16) %0, ptr noundef nonnull align 16 dereferenceable(16) %1) unnamed_addr #3 comdat align 2 {
  %3 = alloca ptr, align 8
  %4 = alloca ptr, align 8
  store ptr %0, ptr %3, align 8, !tbaa !889
  store ptr %1, ptr %4, align 8, !tbaa !281
  %5 = load ptr, ptr %3, align 8
  %6 = getelementptr inbounds nuw %"struct.fmt::v10::detail::arg_data", ptr %5, i32 0, i32 0
  %7 = load ptr, ptr %4, align 8, !tbaa !281
  call void @llvm.memcpy.p0.p0.i64(ptr align 16 %6, ptr align 16 %7, i64 16, i1 false), !tbaa.struct !263
  ret void
}

; Function Attrs: alwaysinline mustprogress ssp uwtable
define linkonce_odr { i64, i64 } @_ZN3fmt3v106detail8make_argILb1ENS0_20basic_format_contextINS0_8appenderEcEE2tmTnNSt9enable_ifIXT_EiE4typeELi0EEENS1_5valueIT0_EERT1_(ptr noundef nonnull align 8 dereferenceable(56) %0) #9 comdat {
  %2 = alloca %"class.fmt::v10::detail::value", align 16
  %3 = alloca ptr, align 8
  %4 = alloca i8, align 1
  %5 = alloca i8, align 1
  %6 = alloca i8, align 1
  %7 = alloca %"struct.fmt::v10::detail::arg_mapper", align 1
  store ptr %0, ptr %3, align 8, !tbaa !225
  call void @llvm.lifetime.start.p0(i64 1, ptr %4) #24
  store i8 1, ptr %4, align 1, !tbaa !9
  call void @llvm.lifetime.start.p0(i64 1, ptr %5) #24
  store i8 1, ptr %5, align 1, !tbaa !9
  call void @llvm.lifetime.start.p0(i64 1, ptr %6) #24
  store i8 1, ptr %6, align 1, !tbaa !9
  call void @llvm.lifetime.start.p0(i64 1, ptr %7) #24
  %8 = load ptr, ptr %3, align 8, !tbaa !225
  %9 = call noundef nonnull align 8 dereferenceable(56) ptr @_ZN3fmt3v106detail10arg_mapperINS0_20basic_format_contextINS0_8appenderEcEEE3mapI2tmS8_TnNSt9enable_ifIXaaaaaaaaoooosr3std8is_classIT0_EE5valuesr3std7is_enumISA_EE5valuesr3std8is_unionISA_EE5valuentsr9is_stringISA_EE5valuentsr7is_charISA_EE5valuentsr12is_named_argISA_EE5valuentsr3std13is_arithmeticINS1_16format_as_resultISA_E4typeEEE5valueEiE4typeELi0EEEDTcl6do_mapfp_EERT_(ptr noundef nonnull align 1 dereferenceable(1) %7, ptr noundef nonnull align 8 dereferenceable(56) %8)
  call void @_ZN3fmt3v106detail5valueINS0_20basic_format_contextINS0_8appenderEcEEEC2I2tmEERT_(ptr noundef nonnull align 16 dereferenceable(16) %2, ptr noundef nonnull align 8 dereferenceable(56) %9)
  call void @llvm.lifetime.end.p0(i64 1, ptr %7) #24
  call void @llvm.lifetime.end.p0(i64 1, ptr %6) #24
  call void @llvm.lifetime.end.p0(i64 1, ptr %5) #24
  call void @llvm.lifetime.end.p0(i64 1, ptr %4) #24
  %10 = getelementptr inbounds nuw %"class.fmt::v10::detail::value", ptr %2, i32 0, i32 0
  %11 = getelementptr inbounds nuw %union.anon.20, ptr %10, i32 0, i32 0
  %12 = load { i64, i64 }, ptr %11, align 16
  ret { i64, i64 } %12
}

; Function Attrs: alwaysinline mustprogress nounwind ssp uwtable
define linkonce_odr void @_ZN3fmt3v1017basic_format_argsINS0_20basic_format_contextINS0_8appenderEcEEEC2EyPKNS0_6detail5valueIS4_EE(ptr noundef nonnull align 8 dereferenceable(16) %0, i64 noundef %1, ptr noundef %2) unnamed_addr #3 comdat align 2 {
  %4 = alloca ptr, align 8
  %5 = alloca i64, align 8
  %6 = alloca ptr, align 8
  store ptr %0, ptr %4, align 8, !tbaa !233
  store i64 %1, ptr %5, align 8, !tbaa !231
  store ptr %2, ptr %6, align 8, !tbaa !281
  %7 = load ptr, ptr %4, align 8
  %8 = getelementptr inbounds nuw %"class.fmt::v10::basic_format_args", ptr %7, i32 0, i32 0
  %9 = load i64, ptr %5, align 8, !tbaa !231
  store i64 %9, ptr %8, align 8, !tbaa !279
  %10 = getelementptr inbounds nuw %"class.fmt::v10::basic_format_args", ptr %7, i32 0, i32 1
  %11 = load ptr, ptr %6, align 8, !tbaa !281
  store ptr %11, ptr %10, align 8, !tbaa !38
  ret void
}

; Function Attrs: alwaysinline mustprogress nounwind ssp uwtable
define linkonce_odr noundef ptr @_ZNK3fmt3v106detail8arg_dataINS1_5valueINS0_20basic_format_contextINS0_8appenderEcEEEEcLm1ELm0EE4argsEv(ptr noundef nonnull align 16 dereferenceable(16) %0) #3 comdat align 2 {
  %2 = alloca ptr, align 8
  store ptr %0, ptr %2, align 8, !tbaa !889
  %3 = load ptr, ptr %2, align 8
  %4 = getelementptr inbounds nuw %"struct.fmt::v10::detail::arg_data", ptr %3, i32 0, i32 0
  %5 = getelementptr inbounds [1 x %"class.fmt::v10::detail::value"], ptr %4, i64 0, i64 0
  ret ptr %5
}

; Function Attrs: alwaysinline mustprogress ssp uwtable
define linkonce_odr void @_ZN3fmt3v1016format_arg_storeINS0_20basic_format_contextINS0_8appenderEcEEJ2tmEEC2IJS5_EEEDpRT_(ptr noundef nonnull align 16 dereferenceable(16) %0, ptr noundef nonnull align 8 dereferenceable(56) %1) unnamed_addr #9 comdat align 2 {
  %3 = alloca ptr, align 8
  %4 = alloca ptr, align 8
  %5 = alloca %"class.fmt::v10::detail::value", align 16
  store ptr %0, ptr %3, align 8, !tbaa !235
  store ptr %1, ptr %4, align 8, !tbaa !225
  %6 = load ptr, ptr %3, align 8
  %7 = getelementptr inbounds nuw %"class.fmt::v10::format_arg_store", ptr %6, i32 0, i32 0
  call void @llvm.lifetime.start.p0(i64 16, ptr %5) #24
  %8 = load ptr, ptr %4, align 8, !tbaa !225
  %9 = call { i64, i64 } @_ZN3fmt3v106detail8make_argILb1ENS0_20basic_format_contextINS0_8appenderEcEE2tmTnNSt9enable_ifIXT_EiE4typeELi0EEENS1_5valueIT0_EERT1_(ptr noundef nonnull align 8 dereferenceable(56) %8)
  %10 = getelementptr inbounds nuw %"class.fmt::v10::detail::value", ptr %5, i32 0, i32 0
  %11 = getelementptr inbounds nuw %union.anon.20, ptr %10, i32 0, i32 0
  %12 = getelementptr inbounds nuw { i64, i64 }, ptr %11, i32 0, i32 0
  %13 = extractvalue { i64, i64 } %9, 0
  store i64 %13, ptr %12, align 16
  %14 = getelementptr inbounds nuw { i64, i64 }, ptr %11, i32 0, i32 1
  %15 = extractvalue { i64, i64 } %9, 1
  store i64 %15, ptr %14, align 8
  call void @_ZN3fmt3v106detail8arg_dataINS1_5valueINS0_20basic_format_contextINS0_8appenderEcEEEEcLm1ELm0EEC2IJS7_EEEDpRKT_(ptr noundef nonnull align 16 dereferenceable(16) %7, ptr noundef nonnull align 16 dereferenceable(16) %5)
  call void @llvm.lifetime.end.p0(i64 16, ptr %5) #24
  ret void
}

; Function Attrs: mustprogress nounwind ssp uwtable
define linkonce_odr noundef i64 @_ZNSt11char_traitsIcE6lengthEPKc(ptr noundef %0) #1 comdat align 2 {
  %2 = alloca ptr, align 8
  store ptr %0, ptr %2, align 8, !tbaa !41
  %3 = load ptr, ptr %2, align 8, !tbaa !41
  %4 = call i64 @strlen(ptr noundef %3) #24
  ret i64 %4
}

; Function Attrs: alwaysinline mustprogress ssp uwtable
define linkonce_odr void @_ZN3fmt3v1017basic_format_argsINS0_20basic_format_contextINS0_8appenderEcEEEC2IJ2tmEEERKNS0_16format_arg_storeIS4_JDpT_EEE(ptr noundef nonnull align 8 dereferenceable(16) %0, ptr noundef nonnull align 16 dereferenceable(16) %1) unnamed_addr #9 comdat align 2 {
  %3 = alloca ptr, align 8
  %4 = alloca ptr, align 8
  store ptr %0, ptr %3, align 8, !tbaa !233
  store ptr %1, ptr %4, align 8, !tbaa !235
  %5 = load ptr, ptr %3, align 8
  %6 = load ptr, ptr %4, align 8, !tbaa !235
  %7 = getelementptr inbounds nuw %"class.fmt::v10::format_arg_store", ptr %6, i32 0, i32 0
  %8 = call noundef ptr @_ZNK3fmt3v106detail8arg_dataINS1_5valueINS0_20basic_format_contextINS0_8appenderEcEEEEcLm1ELm0EE4argsEv(ptr noundef nonnull align 16 dereferenceable(16) %7)
  call void @_ZN3fmt3v1017basic_format_argsINS0_20basic_format_contextINS0_8appenderEcEEEC2EyPKNS0_6detail5valueIS4_EE(ptr noundef nonnull align 8 dereferenceable(16) %5, i64 noundef 15, ptr noundef %8)
  ret void
}

; Function Attrs: mustprogress ssp uwtable
define linkonce_odr { i64, i64 } @_ZN3fmt3v1016make_format_argsINS0_20basic_format_contextINS0_8appenderEcEEJ2tmEEENS0_16format_arg_storeIT_JDpNSt9remove_cvINSt16remove_referenceIT0_E4typeEE4typeEEEEDpRSA_(ptr noundef nonnull align 8 dereferenceable(56) %0) #0 comdat {
  %2 = alloca %"class.fmt::v10::format_arg_store", align 16
  %3 = alloca ptr, align 8
  store ptr %0, ptr %3, align 8, !tbaa !225
  %4 = load ptr, ptr %3, align 8, !tbaa !225
  call void @_ZN3fmt3v1016format_arg_storeINS0_20basic_format_contextINS0_8appenderEcEEJ2tmEEC2IJS5_EEEDpRT_(ptr noundef nonnull align 16 dereferenceable(16) %2, ptr noundef nonnull align 8 dereferenceable(56) %4)
  %5 = getelementptr inbounds nuw %"class.fmt::v10::format_arg_store", ptr %2, i32 0, i32 0
  %6 = getelementptr inbounds nuw %"struct.fmt::v10::detail::arg_data", ptr %5, i32 0, i32 0
  %7 = load { i64, i64 }, ptr %6, align 16
  ret { i64, i64 } %7
}

; Function Attrs: alwaysinline mustprogress nounwind ssp uwtable
define linkonce_odr { ptr, i64 } @_ZNK3fmt3v1019basic_format_stringIcJR2tmEEcvNS0_17basic_string_viewIcEEEv(ptr noundef nonnull align 8 dereferenceable(16) %0) #3 comdat align 2 {
  %2 = alloca %"class.fmt::v10::basic_string_view", align 8
  %3 = alloca ptr, align 8
  store ptr %0, ptr %3, align 8, !tbaa !227
  %4 = load ptr, ptr %3, align 8
  %5 = getelementptr inbounds nuw %"class.fmt::v10::basic_format_string", ptr %4, i32 0, i32 0
  call void @llvm.memcpy.p0.p0.i64(ptr align 8 %2, ptr align 8 %5, i64 16, i1 false), !tbaa.struct !229
  %6 = load { ptr, i64 }, ptr %2, align 8
  ret { ptr, i64 } %6
}

; Function Attrs: alwaysinline mustprogress nounwind ssp uwtable
define linkonce_odr void @_ZN3fmt3v106detail19check_format_stringIJR2tmEA21_cTnNSt9enable_ifIXntsr17is_compile_stringIT0_EE5valueEiE4typeELi0EEEvRKS7_(ptr noundef nonnull align 1 dereferenceable(21) %0) #3 comdat {
  %2 = alloca ptr, align 8
  store ptr %0, ptr %2, align 8, !tbaa !41
  ret void
}

; Function Attrs: alwaysinline mustprogress ssp uwtable
define linkonce_odr void @_ZN3fmt3v1017basic_string_viewIcEC2EPKc(ptr noundef nonnull align 8 dereferenceable(16) %0, ptr noundef %1) unnamed_addr #9 comdat align 2 {
  %3 = alloca ptr, align 8
  %4 = alloca ptr, align 8
  store ptr %0, ptr %3, align 8, !tbaa !252
  store ptr %1, ptr %4, align 8, !tbaa !41
  %5 = load ptr, ptr %3, align 8
  %6 = getelementptr inbounds nuw %"class.fmt::v10::basic_string_view", ptr %5, i32 0, i32 0
  %7 = load ptr, ptr %4, align 8, !tbaa !41
  store ptr %7, ptr %6, align 8, !tbaa !256
  %8 = getelementptr inbounds nuw %"class.fmt::v10::basic_string_view", ptr %5, i32 0, i32 1
  %9 = load ptr, ptr %4, align 8, !tbaa !41
  %10 = call noundef i64 @_ZNSt11char_traitsIcE6lengthEPKc(ptr noundef %9)
  store i64 %10, ptr %8, align 8, !tbaa !254
  ret void
}

; Function Attrs: alwaysinline mustprogress ssp uwtable
define linkonce_odr void @_ZN3fmt3v106formatIJR2tmEEENSt7__cxx1112basic_stringIcSt11char_traitsIcESaIcEEENS0_19basic_format_stringIcJDpNS0_13type_identityIT_E4typeEEEEDpOSC_(ptr dead_on_unwind noalias writable sret(%"class.std::__cxx11::basic_string") align 8 %0, ptr %1, i64 %2, ptr noundef nonnull align 8 dereferenceable(56) %3) #9 comdat {
  %5 = alloca ptr, align 8
  %6 = alloca %"class.fmt::v10::basic_format_string", align 8
  %7 = alloca ptr, align 8
  %8 = alloca %"class.fmt::v10::basic_string_view", align 8
  %9 = alloca %"class.fmt::v10::basic_format_args", align 8
  %10 = alloca %"class.fmt::v10::format_arg_store", align 16
  store ptr %0, ptr %5, align 8
  %11 = getelementptr inbounds nuw { ptr, i64 }, ptr %6, i32 0, i32 0
  store ptr %1, ptr %11, align 8
  %12 = getelementptr inbounds nuw { ptr, i64 }, ptr %6, i32 0, i32 1
  store i64 %2, ptr %12, align 8
  store ptr %3, ptr %7, align 8, !tbaa !225
  %13 = call { ptr, i64 } @_ZNK3fmt3v1019basic_format_stringIcJR2tmEEcvNS0_17basic_string_viewIcEEEv(ptr noundef nonnull align 8 dereferenceable(16) %6)
  %14 = getelementptr inbounds nuw { ptr, i64 }, ptr %8, i32 0, i32 0
  %15 = extractvalue { ptr, i64 } %13, 0
  store ptr %15, ptr %14, align 8
  %16 = getelementptr inbounds nuw { ptr, i64 }, ptr %8, i32 0, i32 1
  %17 = extractvalue { ptr, i64 } %13, 1
  store i64 %17, ptr %16, align 8
  call void @llvm.lifetime.start.p0(i64 16, ptr %10) #24
  %18 = load ptr, ptr %7, align 8, !tbaa !225
  %19 = call { i64, i64 } @_ZN3fmt3v1016make_format_argsINS0_20basic_format_contextINS0_8appenderEcEEJ2tmEEENS0_16format_arg_storeIT_JDpNSt9remove_cvINSt16remove_referenceIT0_E4typeEE4typeEEEEDpRSA_(ptr noundef nonnull align 8 dereferenceable(56) %18)
  %20 = getelementptr inbounds nuw %"class.fmt::v10::format_arg_store", ptr %10, i32 0, i32 0
  %21 = getelementptr inbounds nuw %"struct.fmt::v10::detail::arg_data", ptr %20, i32 0, i32 0
  %22 = getelementptr inbounds nuw { i64, i64 }, ptr %21, i32 0, i32 0
  %23 = extractvalue { i64, i64 } %19, 0
  store i64 %23, ptr %22, align 16
  %24 = getelementptr inbounds nuw { i64, i64 }, ptr %21, i32 0, i32 1
  %25 = extractvalue { i64, i64 } %19, 1
  store i64 %25, ptr %24, align 8
  call void @_ZN3fmt3v1017basic_format_argsINS0_20basic_format_contextINS0_8appenderEcEEEC2IJ2tmEEERKNS0_16format_arg_storeIS4_JDpT_EEE(ptr noundef nonnull align 8 dereferenceable(16) %9, ptr noundef nonnull align 16 dereferenceable(16) %10)
  %26 = getelementptr inbounds nuw { ptr, i64 }, ptr %8, i32 0, i32 0
  %27 = load ptr, ptr %26, align 8
  %28 = getelementptr inbounds nuw { ptr, i64 }, ptr %8, i32 0, i32 1
  %29 = load i64, ptr %28, align 8
  %30 = getelementptr inbounds nuw { i64, ptr }, ptr %9, i32 0, i32 0
  %31 = load i64, ptr %30, align 8
  %32 = getelementptr inbounds nuw { i64, ptr }, ptr %9, i32 0, i32 1
  %33 = load ptr, ptr %32, align 8
  call void @_ZN3fmt3v107vformatB5cxx11ENS0_17basic_string_viewIcEENS0_17basic_format_argsINS0_20basic_format_contextINS0_8appenderEcEEEE(ptr dead_on_unwind writable sret(%"class.std::__cxx11::basic_string") align 8 %0, ptr %27, i64 %29, i64 %31, ptr %33)
  call void @llvm.lifetime.end.p0(i64 16, ptr %10) #24
  ret void
}

; Function Attrs: alwaysinline mustprogress ssp uwtable
define linkonce_odr void @_ZN3fmt3v1019basic_format_stringIcJR2tmEEC2IA21_cTnNSt9enable_ifIXsr3std14is_convertibleIRKT_NS0_17basic_string_viewIcEEEE5valueEiE4typeELi0EEESA_(ptr noundef nonnull align 8 dereferenceable(16) %0, ptr noundef nonnull align 1 dereferenceable(21) %1) unnamed_addr #9 comdat align 2 {
  %3 = alloca ptr, align 8
  %4 = alloca ptr, align 8
  store ptr %0, ptr %3, align 8, !tbaa !227
  store ptr %1, ptr %4, align 8, !tbaa !41
  %5 = load ptr, ptr %3, align 8
  %6 = getelementptr inbounds nuw %"class.fmt::v10::basic_format_string", ptr %5, i32 0, i32 0
  %7 = load ptr, ptr %4, align 8, !tbaa !41
  %8 = getelementptr inbounds [21 x i8], ptr %7, i64 0, i64 0
  call void @_ZN3fmt3v1017basic_string_viewIcEC2EPKc(ptr noundef nonnull align 8 dereferenceable(16) %6, ptr noundef %8)
  %9 = load ptr, ptr %4, align 8, !tbaa !41
  call void @_ZN3fmt3v106detail19check_format_stringIJR2tmEA21_cTnNSt9enable_ifIXntsr17is_compile_stringIT0_EE5valueEiE4typeELi0EEEvRKS7_(ptr noundef nonnull align 1 dereferenceable(21) %9)
  ret void
}

; Function Attrs: mustprogress ssp uwtable
define void @_ZN6open3d7utility19GetCurrentTimeStampB5cxx11Ev(ptr dead_on_unwind noalias writable sret(%"class.std::__cxx11::basic_string") align 8 %0) #0 {
  %2 = alloca ptr, align 8
  %3 = alloca i64, align 8
  %4 = alloca %"class.fmt::v10::basic_format_string", align 8
  store ptr %0, ptr %2, align 8
  call void @llvm.lifetime.start.p0(i64 8, ptr %3) #24
  %5 = call i64 @time(ptr noundef null) #24
  store i64 %5, ptr %3, align 8, !tbaa !11
  call void @_ZN3fmt3v1019basic_format_stringIcJR2tmEEC2IA21_cTnNSt9enable_ifIXsr3std14is_convertibleIRKT_NS0_17basic_string_viewIcEEEE5valueEiE4typeELi0EEESA_(ptr noundef nonnull align 8 dereferenceable(16) %4, ptr noundef nonnull align 1 dereferenceable(21) @.str.7)
  %6 = call ptr @localtime(ptr noundef %3) #24
  %7 = getelementptr inbounds nuw { ptr, i64 }, ptr %4, i32 0, i32 0
  %8 = load ptr, ptr %7, align 8
  %9 = getelementptr inbounds nuw { ptr, i64 }, ptr %4, i32 0, i32 1
  %10 = load i64, ptr %9, align 8
  call void @_ZN3fmt3v106formatIJR2tmEEENSt7__cxx1112basic_stringIcSt11char_traitsIcESaIcEEENS0_19basic_format_stringIcJDpNS0_13type_identityIT_E4typeEEEEDpOSC_(ptr dead_on_unwind writable sret(%"class.std::__cxx11::basic_string") align 8 %0, ptr %8, i64 %10, ptr noundef nonnull align 8 dereferenceable(56) %6)
  call void @llvm.lifetime.end.p0(i64 8, ptr %3) #24
  ret void
}