; Function Attrs: mustprogress ssp uwtable
define void @_ZN6open3d7utility19GetCurrentTimeStampB5cxx11Ev(ptr dead_on_unwind noalias writable sret(%"class.std::__cxx11::basic_string") align 8 %0) local_unnamed_addr #0 {
  %2 = alloca %"class.fmt::v10::format_arg_store", align 16
  %3 = alloca i64, align 8
  call void @llvm.lifetime.start.p0(i64 8, ptr nonnull %3) #30
  %4 = tail call i64 @time(ptr noundef null) #30
  store i64 %4, ptr %3, align 8, !tbaa !17
  %5 = call ptr @localtime(ptr noundef nonnull %3) #30
  call void @llvm.lifetime.start.p0(i64 16, ptr nonnull %2) #30, !noalias !83
  %6 = ptrtoint ptr %5 to i64
  store i64 %6, ptr %2, align 16, !noalias !83
  %7 = getelementptr inbounds nuw i8, ptr %2, i64 8
  store i64 ptrtoint (ptr @_ZN3fmt3v106detail5valueINS0_20basic_format_contextINS0_8appenderEcEEE17format_custom_argI2tmNS0_9formatterIS8_cvEEEEvPvRNS0_26basic_format_parse_contextIcEERS5_ to i64), ptr %7, align 8, !noalias !83
  call void @_ZN3fmt3v107vformatB5cxx11ENS0_17basic_string_viewIcEENS0_17basic_format_argsINS0_20basic_format_contextINS0_8appenderEcEEEE(ptr dead_on_unwind writable sret(%"class.std::__cxx11::basic_string") align 8 %0, ptr nonnull @.str.7, i64 20, i64 15, ptr nonnull %2)
  call void @llvm.lifetime.end.p0(i64 16, ptr nonnull %2) #30, !noalias !83
  call void @llvm.lifetime.end.p0(i64 8, ptr nonnull %3) #30
  ret void
}